target datalayout = "e-m:e-p270:32:32-p271:32:32-p272:64:64-i64:64-i128:128-f80:128-n8:16:32:64-S128"
target triple = "x86_64-pc-linux-gnu"

%struct.slurm_opt_t = type { ptr, ptr, ptr, ptr, ptr, ptr, ptr, ptr, i32, ptr, ptr, ptr, ptr, i32, i32, ptr, i32, i8, i8, i32, i8, i32, i32, ptr, i8, i32, i32, i64, i32, i32, i32, i32, i32, i32, ptr, i32, ptr, i8, i32, i32, ptr, i32, i32, i32, ptr, ptr, i32, i32, ptr, ptr, ptr, i32, i16, i16, i16, i8, i8, ptr, i8, i16, ptr, ptr, i32, i32, i32, ptr, ptr, ptr, ptr, ptr, ptr, i32, i64, i64, i64, i16, i64, ptr, ptr, ptr, ptr, ptr, ptr, ptr, i8, ptr, ptr, ptr, ptr, i8, i64, ptr, i16, ptr, i32, i32, ptr, ptr, i32, i32, i32, ptr, i32, i32, i32, i32, i32, ptr, i64, i32, i16, i32, ptr, ptr, ptr, ptr, ptr, i16, ptr, ptr, i16, i8, ptr, ptr, ptr, ptr }
%struct.option = type { ptr, i32, ptr, i32 }

@.str.7 = private unnamed_addr constant [21 x i8] c"+c:e:J:m:M:n:o:q:W:x\00", align 1
@optind = external global i32, align 4
@optarg = external global ptr, align 8
@.str.17 = private unnamed_addr constant [2 x i8] c" \00", align 1
@.str.18 = private unnamed_addr constant [2 x i8] c"K\00", align 1
@.str.19 = private unnamed_addr constant [2 x i8] c",\00", align 1
@.str.20 = private unnamed_addr constant [40 x i8] c"#BSUB -n format not correct given: '%s'\00", align 1
@error_exit = external global i32, align 4
@.str.21 = private unnamed_addr constant [39 x i8] c"Unrecognized command line parameter %c\00", align 1
@opt = external global %struct.slurm_opt_t, align 8
@.str.22 = private unnamed_addr constant [21 x i8] c"Invalid argument: %s\00", align 1

; Function Attrs: nounwind uwtable
define internal void @_set_bsub_options(i32 noundef %0, ptr noundef %1) #0 {
  %3 = alloca i32, align 4
  %4 = alloca ptr, align 8
  %5 = alloca i32, align 4
  %6 = alloca i32, align 4
  %7 = alloca ptr, align 8
  %8 = alloca ptr, align 8
  %9 = alloca [10 x %struct.option], align 16
  %10 = alloca i32, align 4
  %11 = alloca ptr, align 8
  store i32 %0, ptr %3, align 4
  store ptr %1, ptr %4, align 8
  call void @llvm.lifetime.start.p0(i64 4, ptr %5) #8
  call void @llvm.lifetime.start.p0(i64 4, ptr %6) #8
  store i32 0, ptr %6, align 4
  call void @llvm.lifetime.start.p0(i64 8, ptr %7) #8
  store ptr @.str.7, ptr %7, align 8
  call void @llvm.lifetime.start.p0(i64 8, ptr %8) #8
  call void @llvm.lifetime.start.p0(i64 320, ptr %9) #8
  call void @llvm.memcpy.p0.p0.i64(ptr align 16 %9, ptr align 16 @__const._set_bsub_options.bsub_long_options, i64 320, i1 false)
  store i32 0, ptr @optind, align 4
  br label %12

12:                                               ; preds = %97, %2
  %13 = load i32, ptr %3, align 4
  %14 = load ptr, ptr %4, align 8
  %15 = load ptr, ptr %7, align 8
  %16 = getelementptr inbounds [10 x %struct.option], ptr %9, i64 0, i64 0
  %17 = call i32 @getopt_long(i32 noundef %13, ptr noundef %14, ptr noundef %15, ptr noundef %16, ptr noundef %6) #8
  store i32 %17, ptr %5, align 4
  %18 = icmp ne i32 %17, -1
  br i1 %18, label %19, label %98

19:                                               ; preds = %12
  call void @llvm.lifetime.start.p0(i64 4, ptr %10) #8
  store i32 0, ptr %10, align 4
  call void @llvm.lifetime.start.p0(i64 8, ptr %11) #8
  store ptr null, ptr %11, align 8
  %20 = load i32, ptr %5, align 4
  switch i32 %20, label %87 [
    i32 99, label %21
    i32 101, label %24
    i32 74, label %24
    i32 111, label %24
    i32 109, label %28
    i32 77, label %38
    i32 110, label %58
    i32 113, label %80
    i32 87, label %83
    i32 120, label %86
  ]

21:                                               ; preds = %19
  store i32 68, ptr %10, align 4
  %22 = load ptr, ptr @optarg, align 8
  %23 = call ptr @xstrdup(ptr noundef %22)
  store ptr %23, ptr %11, align 8
  br label %91

24:                                               ; preds = %19, %19, %19
  %25 = load i32, ptr %5, align 4
  store i32 %25, ptr %10, align 4
  %26 = load ptr, ptr @optarg, align 8
  %27 = call ptr @xstrdup(ptr noundef %26)
  store ptr %27, ptr %11, align 8
  br label %91

28:                                               ; preds = %19
  store i32 119, ptr %10, align 4
  %29 = load ptr, ptr @optarg, align 8
  %30 = call ptr @xstrdup(ptr noundef %29)
  store ptr %30, ptr %11, align 8
  br label %31

31:                                               ; preds = %35, %28
  %32 = load ptr, ptr %11, align 8
  %33 = call ptr @strstr(ptr noundef %32, ptr noundef @.str.17) #9
  store ptr %33, ptr %8, align 8
  %34 = icmp ne ptr %33, null
  br i1 %34, label %35, label %37

35:                                               ; preds = %31
  %36 = load ptr, ptr %8, align 8
  store i8 44, ptr %36, align 1
  br label %31, !llvm.loop !15

37:                                               ; preds = %31
  br label %91

38:                                               ; preds = %19
  store i32 316, ptr %10, align 4
  %39 = load ptr, ptr @optarg, align 8
  %40 = call ptr @xstrdup(ptr noundef %39)
  store ptr %40, ptr %11, align 8
  %41 = call ptr @__ctype_b_loc() #10
  %42 = load ptr, ptr %41, align 8
  %43 = load ptr, ptr @optarg, align 8
  %44 = load ptr, ptr @optarg, align 8
  %45 = call i64 @strlen(ptr noundef %44) #9
  %46 = sub i64 %45, 1
  %47 = getelementptr inbounds nuw i8, ptr %43, i64 %46
  %48 = load i8, ptr %47, align 1
  %49 = sext i8 %48 to i32
  %50 = sext i32 %49 to i64
  %51 = getelementptr inbounds i16, ptr %42, i64 %50
  %52 = load i16, ptr %51, align 2
  %53 = zext i16 %52 to i32
  %54 = and i32 %53, 2048
  %55 = icmp ne i32 %54, 0
  br i1 %55, label %56, label %57

56:                                               ; preds = %38
  call void @_xstrcat(ptr noundef %11, ptr noundef @.str.18)
  br label %57

57:                                               ; preds = %56, %38
  br label %91

58:                                               ; preds = %19
  %59 = load ptr, ptr @optarg, align 8
  %60 = call ptr @strstr(ptr noundef %59, ptr noundef @.str.19) #9
  store ptr %60, ptr %8, align 8
  %61 = load ptr, ptr %8, align 8
  %62 = icmp ne ptr %61, null
  br i1 %62, label %63, label %75

63:                                               ; preds = %58
  %64 = load ptr, ptr %8, align 8
  %65 = getelementptr inbounds nuw i8, ptr %64, i32 1
  store ptr %65, ptr %8, align 8
  %66 = load ptr, ptr %8, align 8
  %67 = getelementptr inbounds i8, ptr %66, i64 0
  %68 = load i8, ptr %67, align 1
  %69 = icmp ne i8 %68, 0
  br i1 %69, label %74, label %70

70:                                               ; preds = %63
  %71 = load ptr, ptr @optarg, align 8
  %72 = call i32 (ptr, ...) @error(ptr noundef @.str.20, ptr noundef %71)
  %73 = load i32, ptr @error_exit, align 4
  call void @exit(i32 noundef %73) #11
  unreachable

74:                                               ; preds = %63
  br label %77

75:                                               ; preds = %58
  %76 = load ptr, ptr @optarg, align 8
  store ptr %76, ptr %8, align 8
  br label %77

77:                                               ; preds = %75, %74
  store i32 110, ptr %10, align 4
  %78 = load ptr, ptr %8, align 8
  %79 = call ptr @xstrdup(ptr noundef %78)
  store ptr %79, ptr %11, align 8
  br label %91

80:                                               ; preds = %19
  store i32 112, ptr %10, align 4
  %81 = load ptr, ptr @optarg, align 8
  %82 = call ptr @xstrdup(ptr noundef %81)
  store ptr %82, ptr %11, align 8
  br label %91

83:                                               ; preds = %19
  store i32 116, ptr %10, align 4
  %84 = load ptr, ptr @optarg, align 8
  %85 = call ptr @xstrdup(ptr noundef %84)
  store ptr %85, ptr %11, align 8
  br label %91

86:                                               ; preds = %19
  store i32 288, ptr %10, align 4
  br label %91

87:                                               ; preds = %19
  %88 = load i32, ptr %5, align 4
  %89 = call i32 (ptr, ...) @error(ptr noundef @.str.21, i32 noundef %88)
  %90 = load i32, ptr @error_exit, align 4
  call void @exit(i32 noundef %90) #11
  unreachable

91:                                               ; preds = %86, %83, %80, %77, %57, %37, %24, %21
  %92 = load i32, ptr %10, align 4
  %93 = icmp ne i32 %92, 0
  br i1 %93, label %94, label %97

94:                                               ; preds = %91
  %95 = load i32, ptr %10, align 4
  %96 = load ptr, ptr %11, align 8
  call void @slurm_process_option_or_exit(ptr noundef @opt, i32 noundef %95, ptr noundef %96, i1 noundef zeroext false, i1 noundef zeroext false)
  br label %97

97:                                               ; preds = %94, %91
  call void @slurm_xfree(ptr noundef %11)
  call void @llvm.lifetime.end.p0(i64 8, ptr %11) #8
  call void @llvm.lifetime.end.p0(i64 4, ptr %10) #8
  br label %12, !llvm.loop !16

98:                                               ; preds = %12
  %99 = load i32, ptr @optind, align 4
  %100 = load i32, ptr %3, align 4
  %101 = icmp slt i32 %99, %100
  br i1 %101, label %102, label %110

102:                                              ; preds = %98
  %103 = load ptr, ptr %4, align 8
  %104 = load i32, ptr @optind, align 4
  %105 = sext i32 %104 to i64
  %106 = getelementptr inbounds ptr, ptr %103, i64 %105
  %107 = load ptr, ptr %106, align 8
  %108 = call i32 (ptr, ...) @error(ptr noundef @.str.22, ptr noundef %107)
  %109 = load i32, ptr @error_exit, align 4
  call void @exit(i32 noundef %109) #11
  unreachable

110:                                              ; preds = %98
  call void @llvm.lifetime.end.p0(i64 320, ptr %9) #8
  call void @llvm.lifetime.end.p0(i64 8, ptr %8) #8
  call void @llvm.lifetime.end.p0(i64 8, ptr %7) #8
  call void @llvm.lifetime.end.p0(i64 4, ptr %6) #8
  call void @llvm.lifetime.end.p0(i64 4, ptr %5) #8
  ret void
}