; Function Attrs: nounwind uwtable
define internal void @_set_bsub_options(i32 noundef %0, ptr noundef %1) unnamed_addr #0 {
  %3 = alloca i32, align 4
  %4 = alloca [10 x %struct.option], align 16
  %5 = alloca ptr, align 8
  call void @llvm.lifetime.start.p0(i64 4, ptr nonnull %3) #10
  store i32 0, ptr %3, align 4
  call void @llvm.lifetime.start.p0(i64 320, ptr nonnull %4) #10
  call void @llvm.memcpy.p0.p0.i64(ptr noundef nonnull align 16 dereferenceable(320) %4, ptr noundef nonnull align 16 dereferenceable(320) @__const._set_bsub_options.bsub_long_options, i64 320, i1 false)
  store i32 0, ptr @optind, align 4
  %6 = call i32 @getopt_long(i32 noundef %0, ptr noundef %1, ptr noundef nonnull @.str.7, ptr noundef nonnull %4, ptr noundef nonnull %3) #10
  %.not31 = icmp eq i32 %6, -1
  br i1 %.not31, label %._crit_edge, label %.lr.ph32

.lr.ph32:                                         ; preds = %2, %.loopexit
  %7 = phi i32 [ %53, %.loopexit ], [ %6, %2 ]
  call void @llvm.lifetime.start.p0(i64 8, ptr nonnull %5) #10
  store ptr null, ptr %5, align 8
  switch i32 %7, label %49 [
    i32 99, label %8
    i32 101, label %11
    i32 74, label %11
    i32 111, label %11
    i32 109, label %14
    i32 77, label %18
    i32 110, label %33
    i32 113, label %43
    i32 87, label %46
    i32 120, label %.loopexit
  ]

8:                                                ; preds = %.lr.ph32
  %9 = load ptr, ptr @optarg, align 8
  %10 = call ptr @xstrdup(ptr noundef %9) #10
  store ptr %10, ptr %5, align 8
  br label %.loopexit

11:                                               ; preds = %.lr.ph32, %.lr.ph32, %.lr.ph32
  %12 = load ptr, ptr @optarg, align 8
  %13 = call ptr @xstrdup(ptr noundef %12) #10
  store ptr %13, ptr %5, align 8
  br label %.loopexit

14:                                               ; preds = %.lr.ph32
  %15 = load ptr, ptr @optarg, align 8
  %16 = call ptr @xstrdup(ptr noundef %15) #10
  store ptr %16, ptr %5, align 8
  %strchr2228 = call ptr @strchr(ptr nonnull dereferenceable(1) %16, i32 32)
  %.not2329 = icmp eq ptr %strchr2228, null
  br i1 %.not2329, label %.loopexit, label %.lr.ph

.lr.ph:                                           ; preds = %14, %.lr.ph
  %strchr2230 = phi ptr [ %strchr22, %.lr.ph ], [ %strchr2228, %14 ]
  store i8 44, ptr %strchr2230, align 1
  %17 = load ptr, ptr %5, align 8
  %strchr22 = call ptr @strchr(ptr nonnull dereferenceable(1) %17, i32 32)
  %.not23 = icmp eq ptr %strchr22, null
  br i1 %.not23, label %.loopexit, label %.lr.ph, !llvm.loop !14

18:                                               ; preds = %.lr.ph32
  %19 = load ptr, ptr @optarg, align 8
  %20 = call ptr @xstrdup(ptr noundef %19) #10
  store ptr %20, ptr %5, align 8
  %21 = tail call ptr @__ctype_b_loc() #12
  %22 = load ptr, ptr %21, align 8
  %23 = load ptr, ptr @optarg, align 8
  %24 = call i64 @strlen(ptr noundef nonnull dereferenceable(1) %23) #11
  %25 = getelementptr i8, ptr %23, i64 %24
  %26 = getelementptr i8, ptr %25, i64 -1
  %27 = load i8, ptr %26, align 1
  %28 = sext i8 %27 to i64
  %29 = getelementptr inbounds i16, ptr %22, i64 %28
  %30 = load i16, ptr %29, align 2
  %31 = and i16 %30, 2048
  %.not21 = icmp eq i16 %31, 0
  br i1 %.not21, label %.loopexit, label %32

32:                                               ; preds = %18
  call void @_xstrcat(ptr noundef nonnull %5, ptr noundef nonnull @.str.18) #10
  %.pre = load ptr, ptr %5, align 8
  br label %.loopexit

33:                                               ; preds = %.lr.ph32
  %34 = load ptr, ptr @optarg, align 8
  %strchr = call ptr @strchr(ptr nonnull dereferenceable(1) %34, i32 44)
  %.not19 = icmp eq ptr %strchr, null
  br i1 %.not19, label %41, label %35

35:                                               ; preds = %33
  %36 = getelementptr inbounds nuw i8, ptr %strchr, i64 1
  %37 = load i8, ptr %36, align 1
  %.not20 = icmp eq i8 %37, 0
  br i1 %.not20, label %38, label %41

38:                                               ; preds = %35
  %39 = call i32 (ptr, ...) @error(ptr noundef nonnull @.str.20, ptr noundef nonnull %34) #10
  %40 = load i32, ptr @error_exit, align 4
  call void @exit(i32 noundef %40) #13
  unreachable

41:                                               ; preds = %33, %35
  %.014 = phi ptr [ %36, %35 ], [ %34, %33 ]
  %42 = call ptr @xstrdup(ptr noundef nonnull %.014) #10
  store ptr %42, ptr %5, align 8
  br label %.loopexit

43:                                               ; preds = %.lr.ph32
  %44 = load ptr, ptr @optarg, align 8
  %45 = call ptr @xstrdup(ptr noundef %44) #10
  store ptr %45, ptr %5, align 8
  br label %.loopexit

46:                                               ; preds = %.lr.ph32
  %47 = load ptr, ptr @optarg, align 8
  %48 = call ptr @xstrdup(ptr noundef %47) #10
  store ptr %48, ptr %5, align 8
  br label %.loopexit

49:                                               ; preds = %.lr.ph32
  %50 = call i32 (ptr, ...) @error(ptr noundef nonnull @.str.21, i32 noundef %7) #10
  %51 = load i32, ptr @error_exit, align 4
  call void @exit(i32 noundef %51) #13
  unreachable

.loopexit:                                        ; preds = %.lr.ph, %14, %.lr.ph32, %18, %32, %46, %43, %41, %11, %8
  %52 = phi ptr [ %48, %46 ], [ %45, %43 ], [ %42, %41 ], [ %.pre, %32 ], [ %20, %18 ], [ %13, %11 ], [ %10, %8 ], [ null, %.lr.ph32 ], [ %16, %14 ], [ %17, %.lr.ph ]
  %.0 = phi i32 [ 116, %46 ], [ 112, %43 ], [ 110, %41 ], [ 316, %32 ], [ 316, %18 ], [ %7, %11 ], [ 68, %8 ], [ 288, %.lr.ph32 ], [ 119, %14 ], [ 119, %.lr.ph ]
  call void @slurm_process_option_or_exit(ptr noundef nonnull @opt, i32 noundef %.0, ptr noundef %52, i1 noundef zeroext false, i1 noundef zeroext false) #10
  call void @slurm_xfree(ptr noundef nonnull %5) #10
  call void @llvm.lifetime.end.p0(i64 8, ptr nonnull %5) #10
  %53 = call i32 @getopt_long(i32 noundef %0, ptr noundef %1, ptr noundef nonnull @.str.7, ptr noundef nonnull %4, ptr noundef nonnull %3) #10
  %.not = icmp eq i32 %53, -1
  br i1 %.not, label %._crit_edge, label %.lr.ph32, !llvm.loop !15

._crit_edge:                                      ; preds = %.loopexit, %2
  %54 = load i32, ptr @optind, align 4
  %55 = icmp slt i32 %54, %0
  br i1 %55, label %56, label %62

56:                                               ; preds = %._crit_edge
  %57 = sext i32 %54 to i64
  %58 = getelementptr inbounds ptr, ptr %1, i64 %57
  %59 = load ptr, ptr %58, align 8
  %60 = call i32 (ptr, ...) @error(ptr noundef nonnull @.str.22, ptr noundef %59) #10
  %61 = load i32, ptr @error_exit, align 4
  call void @exit(i32 noundef %61) #13
  unreachable

62:                                               ; preds = %._crit_edge
  call void @llvm.lifetime.end.p0(i64 320, ptr nonnull %4) #10
  call void @llvm.lifetime.end.p0(i64 4, ptr nonnull %3) #10
  ret void
}